target datalayout = "e-m:e-p270:32:32-p271:32:32-p272:64:64-i64:64-i128:128-f80:128-n8:16:32:64-S128"
target triple = "x86_64-pc-linux-gnu"

%"class.duckdb::vector" = type { %"class.std::vector" }
%"class.std::vector" = type { %"struct.std::_Vector_base" }
%"struct.std::_Vector_base" = type { %"struct.std::_Vector_base<duckdb::LogicalType, std::allocator<duckdb::LogicalType>>::_Vector_impl" }
%"struct.std::_Vector_base<duckdb::LogicalType, std::allocator<duckdb::LogicalType>>::_Vector_impl" = type { %"struct.std::_Vector_base<duckdb::LogicalType, std::allocator<duckdb::LogicalType>>::_Vector_impl_data" }
%"struct.std::_Vector_base<duckdb::LogicalType, std::allocator<duckdb::LogicalType>>::_Vector_impl_data" = type { ptr, ptr, ptr }
%"struct.duckdb::LogicalType" = type { i8, i8, %"class.duckdb::shared_ptr" }
%"class.duckdb::shared_ptr" = type { %"class.std::shared_ptr" }
%"class.std::shared_ptr" = type { %"class.std::__shared_ptr" }
%"class.std::__shared_ptr" = type { ptr, %"class.std::__shared_count" }
%"class.std::__shared_count" = type { ptr }
%"class.duckdb::optional_ptr" = type { ptr }
%"struct.duckdb::RandomLocalState" = type { %"struct.duckdb::FunctionLocalState", %"class.duckdb::RandomEngine" }
%"struct.duckdb::FunctionLocalState" = type { ptr }
%"class.duckdb::RandomEngine" = type { %"class.std::mutex", %"class.duckdb::unique_ptr.125" }
%"class.std::mutex" = type { %"class.std::__mutex_base" }
%"class.std::__mutex_base" = type { %union.pthread_mutex_t }
%union.pthread_mutex_t = type { %struct.__pthread_mutex_s }
%struct.__pthread_mutex_s = type { i32, i32, i32, i32, i32, i16, i16, %struct.__pthread_internal_list }
%struct.__pthread_internal_list = type { ptr, ptr }
%"class.duckdb::unique_ptr.125" = type { %"class.std::unique_ptr.126" }
%"class.std::unique_ptr.126" = type { %"struct.std::__uniq_ptr_data.127" }
%"struct.std::__uniq_ptr_data.127" = type { %"class.std::__uniq_ptr_impl.128" }
%"class.std::__uniq_ptr_impl.128" = type { %"class.std::tuple.129" }
%"class.std::tuple.129" = type { %"struct.std::_Tuple_impl.130" }
%"struct.std::_Tuple_impl.130" = type { %"struct.std::_Head_base.133" }
%"struct.std::_Head_base.133" = type { ptr }
%"class.duckdb::unique_ptr" = type { %"class.std::unique_ptr" }
%"class.std::unique_ptr" = type { %"struct.std::__uniq_ptr_data" }
%"struct.std::__uniq_ptr_data" = type { %"class.std::__uniq_ptr_impl" }
%"class.std::__uniq_ptr_impl" = type { %"class.std::tuple" }
%"class.std::tuple" = type { %"struct.std::_Tuple_impl" }
%"struct.std::_Tuple_impl" = type { %"struct.std::_Head_base.8" }
%"struct.std::_Head_base.8" = type { ptr }
%"struct.duckdb::hugeint_t" = type { i64, i64 }
%"struct.duckdb::ExpressionState" = type { ptr, ptr, ptr, %"class.duckdb::vector.102", %"class.duckdb::vector", %"class.duckdb::DataChunk", %"class.duckdb::vector.120" }
%"class.duckdb::vector.102" = type { %"class.std::vector.103" }
%"class.std::vector.103" = type { %"struct.std::_Vector_base.104" }
%"struct.std::_Vector_base.104" = type { %"struct.std::_Vector_base<duckdb::unique_ptr<duckdb::ExpressionState>, std::allocator<duckdb::unique_ptr<duckdb::ExpressionState>>>::_Vector_impl" }
%"struct.std::_Vector_base<duckdb::unique_ptr<duckdb::ExpressionState>, std::allocator<duckdb::unique_ptr<duckdb::ExpressionState>>>::_Vector_impl" = type { %"struct.std::_Vector_base<duckdb::unique_ptr<duckdb::ExpressionState>, std::allocator<duckdb::unique_ptr<duckdb::ExpressionState>>>::_Vector_impl_data" }
%"struct.std::_Vector_base<duckdb::unique_ptr<duckdb::ExpressionState>, std::allocator<duckdb::unique_ptr<duckdb::ExpressionState>>>::_Vector_impl_data" = type { ptr, ptr, ptr }
%"class.duckdb::DataChunk" = type { %"class.duckdb::vector.108", i64, i64, %"class.duckdb::vector.114" }
%"class.duckdb::vector.108" = type { %"class.std::vector.109" }
%"class.std::vector.109" = type { %"struct.std::_Vector_base.110" }
%"struct.std::_Vector_base.110" = type { %"struct.std::_Vector_base<duckdb::Vector, std::allocator<duckdb::Vector>>::_Vector_impl" }
%"struct.std::_Vector_base<duckdb::Vector, std::allocator<duckdb::Vector>>::_Vector_impl" = type { %"struct.std::_Vector_base<duckdb::Vector, std::allocator<duckdb::Vector>>::_Vector_impl_data" }
%"struct.std::_Vector_base<duckdb::Vector, std::allocator<duckdb::Vector>>::_Vector_impl_data" = type { ptr, ptr, ptr }
%"class.duckdb::vector.114" = type { %"class.std::vector.115" }
%"class.std::vector.115" = type { %"struct.std::_Vector_base.116" }
%"struct.std::_Vector_base.116" = type { %"struct.std::_Vector_base<duckdb::VectorCache, std::allocator<duckdb::VectorCache>>::_Vector_impl" }
%"struct.std::_Vector_base<duckdb::VectorCache, std::allocator<duckdb::VectorCache>>::_Vector_impl" = type { %"struct.std::_Vector_base<duckdb::VectorCache, std::allocator<duckdb::VectorCache>>::_Vector_impl_data" }
%"struct.std::_Vector_base<duckdb::VectorCache, std::allocator<duckdb::VectorCache>>::_Vector_impl_data" = type { ptr, ptr, ptr }
%"class.duckdb::vector.120" = type { %"class.std::vector.121" }
%"class.std::vector.121" = type { %"struct.std::_Bvector_base" }
%"struct.std::_Bvector_base" = type { %"struct.std::_Bvector_base<std::allocator<bool>>::_Bvector_impl" }
%"struct.std::_Bvector_base<std::allocator<bool>>::_Bvector_impl" = type { %"struct.std::_Bvector_base<std::allocator<bool>>::_Bvector_impl_data" }
%"struct.std::_Bvector_base<std::allocator<bool>>::_Bvector_impl_data" = type { %"struct.std::_Bit_iterator", %"struct.std::_Bit_iterator", ptr }
%"struct.std::_Bit_iterator" = type { %"struct.std::_Bit_iterator_base.base", [4 x i8] }
%"struct.std::_Bit_iterator_base.base" = type <{ ptr, i32 }>
%"struct.duckdb::ExecuteFunctionState" = type { %"struct.duckdb::ExpressionState", %"class.duckdb::unique_ptr" }
%"class.duckdb::Vector" = type { i8, %"struct.duckdb::LogicalType", ptr, %"struct.duckdb::ValidityMask", %"class.duckdb::shared_ptr.138", %"class.duckdb::shared_ptr.138" }
%"struct.duckdb::ValidityMask" = type { %"struct.duckdb::TemplatedValidityMask" }
%"struct.duckdb::TemplatedValidityMask" = type { ptr, %"class.duckdb::shared_ptr.134", i64 }
%"class.duckdb::shared_ptr.134" = type { %"class.std::shared_ptr.135" }
%"class.std::shared_ptr.135" = type { %"class.std::__shared_ptr.136" }
%"class.std::__shared_ptr.136" = type { ptr, %"class.std::__shared_count" }
%"class.duckdb::shared_ptr.138" = type { %"class.std::shared_ptr.139" }
%"class.std::shared_ptr.139" = type { %"class.std::__shared_ptr.140" }
%"class.std::__shared_ptr.140" = type { ptr, %"class.std::__shared_count" }

; Function Attrs: mustprogress nounwind uwtable
define linkonce_odr noundef nonnull align 8 dereferenceable(8) ptr @_ZNSt10_Head_baseILm0EPN6duckdb18FunctionLocalStateELb0EE7_M_headERKS3_(ptr noundef nonnull align 8 dereferenceable(8) %0) #2 comdat align 2 {
  %2 = alloca ptr, align 8
  store ptr %0, ptr %2, align 8, !tbaa !164
  %3 = load ptr, ptr %2, align 8, !tbaa !164
  %4 = getelementptr inbounds nuw %"struct.std::_Head_base.8", ptr %3, i32 0, i32 0
  ret ptr %4
}

; Function Attrs: mustprogress nounwind uwtable
define linkonce_odr noundef nonnull align 8 dereferenceable(8) ptr @_ZNSt11_Tuple_implILm0EJPN6duckdb18FunctionLocalStateESt14default_deleteIS1_EEE7_M_headERKS5_(ptr noundef nonnull align 8 dereferenceable(8) %0) #2 comdat align 2 {
  %2 = alloca ptr, align 8
  store ptr %0, ptr %2, align 8, !tbaa !162
  %3 = load ptr, ptr %2, align 8, !tbaa !162
  %4 = call noundef nonnull align 8 dereferenceable(8) ptr @_ZNSt10_Head_baseILm0EPN6duckdb18FunctionLocalStateELb0EE7_M_headERKS3_(ptr noundef nonnull align 8 dereferenceable(8) %3) #17
  ret ptr %4
}

; Function Attrs: mustprogress nounwind uwtable
define linkonce_odr noundef nonnull align 8 dereferenceable(8) ptr @_ZSt12__get_helperILm0EPN6duckdb18FunctionLocalStateEJSt14default_deleteIS1_EEERKT0_RKSt11_Tuple_implIXT_EJS5_DpT1_EE(ptr noundef nonnull align 8 dereferenceable(8) %0) #2 comdat {
  %2 = alloca ptr, align 8
  store ptr %0, ptr %2, align 8, !tbaa !162
  %3 = load ptr, ptr %2, align 8, !tbaa !162
  %4 = call noundef nonnull align 8 dereferenceable(8) ptr @_ZNSt11_Tuple_implILm0EJPN6duckdb18FunctionLocalStateESt14default_deleteIS1_EEE7_M_headERKS5_(ptr noundef nonnull align 8 dereferenceable(8) %3) #17
  ret ptr %4
}

; Function Attrs: mustprogress nounwind uwtable
define linkonce_odr noundef nonnull align 8 dereferenceable(8) ptr @_ZSt3getILm0EJPN6duckdb18FunctionLocalStateESt14default_deleteIS1_EEERKNSt13tuple_elementIXT_ESt5tupleIJDpT0_EEE4typeERKS9_(ptr noundef nonnull align 8 dereferenceable(8) %0) #2 comdat {
  %2 = alloca ptr, align 8
  store ptr %0, ptr %2, align 8, !tbaa !160
  %3 = load ptr, ptr %2, align 8, !tbaa !160
  %4 = call noundef nonnull align 8 dereferenceable(8) ptr @_ZSt12__get_helperILm0EPN6duckdb18FunctionLocalStateEJSt14default_deleteIS1_EEERKT0_RKSt11_Tuple_implIXT_EJS5_DpT1_EE(ptr noundef nonnull align 8 dereferenceable(8) %3) #17
  ret ptr %4
}

; Function Attrs: inlinehint mustprogress nounwind uwtable
define linkonce_odr noundef ptr @_ZN6duckdb14ConstantVector7GetDataERNS_6VectorE(ptr noundef nonnull align 8 dereferenceable(104) %0) #6 comdat align 2 {
  %2 = alloca ptr, align 8
  store ptr %0, ptr %2, align 8, !tbaa !44
  %3 = load ptr, ptr %2, align 8, !tbaa !44
  %4 = getelementptr inbounds nuw %"class.duckdb::Vector", ptr %3, i32 0, i32 2
  %5 = load ptr, ptr %4, align 8, !tbaa !166
  ret ptr %5
}

; Function Attrs: mustprogress nounwind uwtable
define linkonce_odr noundef ptr @_ZNKSt15__uniq_ptr_implIN6duckdb18FunctionLocalStateESt14default_deleteIS1_EE6_M_ptrEv(ptr noundef nonnull align 8 dereferenceable(8) %0) #2 comdat align 2 {
  %2 = alloca ptr, align 8
  store ptr %0, ptr %2, align 8, !tbaa !158
  %3 = load ptr, ptr %2, align 8
  %4 = getelementptr inbounds nuw %"class.std::__uniq_ptr_impl", ptr %3, i32 0, i32 0
  %5 = call noundef nonnull align 8 dereferenceable(8) ptr @_ZSt3getILm0EJPN6duckdb18FunctionLocalStateESt14default_deleteIS1_EEERKNSt13tuple_elementIXT_ESt5tupleIJDpT0_EEE4typeERKS9_(ptr noundef nonnull align 8 dereferenceable(8) %4) #17
  %6 = load ptr, ptr %5, align 8, !tbaa !154
  ret ptr %6
}

; Function Attrs: mustprogress nounwind uwtable
define linkonce_odr void @_ZN6duckdb16DynamicCastCheckINS_20ExecuteFunctionStateENS_15ExpressionStateEEEvPKT0_(ptr noundef %0) #2 comdat {
  %2 = alloca ptr, align 8
  store ptr %0, ptr %2, align 8, !tbaa !42
  ret void
}

; Function Attrs: inlinehint mustprogress nounwind uwtable
define linkonce_odr noundef ptr @_ZN6duckdb14ConstantVector7GetDataINS_9hugeint_tEEEPT_RNS_6VectorE(ptr noundef nonnull align 8 dereferenceable(104) %0) #6 comdat align 2 {
  %2 = alloca ptr, align 8
  store ptr %0, ptr %2, align 8, !tbaa !44
  %3 = load ptr, ptr %2, align 8, !tbaa !44
  %4 = call noundef ptr @_ZN6duckdb14ConstantVector7GetDataERNS_6VectorE(ptr noundef nonnull align 8 dereferenceable(104) %3)
  ret ptr %4
}

; Function Attrs: mustprogress nounwind uwtable
define linkonce_odr void @_ZN6duckdb16DynamicCastCheckINS_16RandomLocalStateENS_18FunctionLocalStateEEEvPKT0_(ptr noundef %0) #2 comdat {
  %2 = alloca ptr, align 8
  store ptr %0, ptr %2, align 8, !tbaa !154
  ret void
}

; Function Attrs: mustprogress nounwind uwtable
define linkonce_odr void @_ZN6duckdb12optional_ptrINS_18FunctionLocalStateELb1EEC2EPS1_(ptr noundef nonnull align 8 dereferenceable(8) %0, ptr noundef %1) unnamed_addr #2 comdat align 2 {
  %3 = alloca ptr, align 8
  %4 = alloca ptr, align 8
  store ptr %0, ptr %3, align 8, !tbaa !149
  store ptr %1, ptr %4, align 8, !tbaa !154
  %5 = load ptr, ptr %3, align 8
  %6 = getelementptr inbounds nuw %"class.duckdb::optional_ptr", ptr %5, i32 0, i32 0
  %7 = load ptr, ptr %4, align 8, !tbaa !154
  store ptr %7, ptr %6, align 8, !tbaa !151
  ret void
}

; Function Attrs: mustprogress nounwind uwtable
define linkonce_odr noundef ptr @_ZNKSt10unique_ptrIN6duckdb18FunctionLocalStateESt14default_deleteIS1_EE3getEv(ptr noundef nonnull align 8 dereferenceable(8) %0) #2 comdat align 2 {
  %2 = alloca ptr, align 8
  store ptr %0, ptr %2, align 8, !tbaa !156
  %3 = load ptr, ptr %2, align 8
  %4 = getelementptr inbounds nuw %"class.std::unique_ptr", ptr %3, i32 0, i32 0
  %5 = call noundef ptr @_ZNKSt15__uniq_ptr_implIN6duckdb18FunctionLocalStateESt14default_deleteIS1_EE6_M_ptrEv(ptr noundef nonnull align 8 dereferenceable(8) %4) #17
  ret ptr %5
}

; Function Attrs: mustprogress uwtable
define linkonce_odr noundef nonnull align 8 dereferenceable(184) ptr @_ZN6duckdb15ExpressionState4CastINS_20ExecuteFunctionStateEEERT_v(ptr noundef nonnull align 8 dereferenceable(176) %0) #0 comdat align 2 {
  %2 = alloca ptr, align 8
  store ptr %0, ptr %2, align 8, !tbaa !42
  %3 = load ptr, ptr %2, align 8
  call void @_ZN6duckdb16DynamicCastCheckINS_20ExecuteFunctionStateENS_15ExpressionStateEEEvPKT0_(ptr noundef %3)
  ret ptr %3
}

; Function Attrs: inlinehint mustprogress nounwind uwtable
define linkonce_odr noundef i64 @_ZNK6duckdb9DataChunk4sizeEv(ptr noundef nonnull align 8 dereferenceable(64) %0) #6 comdat align 2 {
  %2 = alloca ptr, align 8
  store ptr %0, ptr %2, align 8, !tbaa !40
  %3 = load ptr, ptr %2, align 8
  %4 = getelementptr inbounds nuw %"class.duckdb::DataChunk", ptr %3, i32 0, i32 1
  %5 = load i64, ptr %4, align 8, !tbaa !155
  ret i64 %5
}

; Function Attrs: inlinehint mustprogress uwtable
define linkonce_odr noundef ptr @_ZN6duckdb10FlatVector7GetDataINS_9hugeint_tEEEPT_RNS_6VectorE(ptr noundef nonnull align 8 dereferenceable(104) %0) #7 comdat align 2 {
  %2 = alloca ptr, align 8
  store ptr %0, ptr %2, align 8, !tbaa !44
  %3 = load ptr, ptr %2, align 8, !tbaa !44
  %4 = call noundef ptr @_ZN6duckdb14ConstantVector7GetDataINS_9hugeint_tEEEPT_RNS_6VectorE(ptr noundef nonnull align 8 dereferenceable(104) %3)
  ret ptr %4
}

; Function Attrs: mustprogress uwtable
define linkonce_odr noundef nonnull align 8 dereferenceable(56) ptr @_ZN6duckdb18FunctionLocalState4CastINS_16RandomLocalStateEEERT_v(ptr noundef nonnull align 8 dereferenceable(8) %0) #0 comdat align 2 {
  %2 = alloca ptr, align 8
  store ptr %0, ptr %2, align 8, !tbaa !154
  %3 = load ptr, ptr %2, align 8
  call void @_ZN6duckdb16DynamicCastCheckINS_16RandomLocalStateENS_18FunctionLocalStateEEEvPKT0_(ptr noundef %3)
  ret ptr %3
}

; Function Attrs: mustprogress uwtable
define linkonce_odr noundef ptr @_ZN6duckdb12optional_ptrINS_18FunctionLocalStateELb1EEptEv(ptr noundef nonnull align 8 dereferenceable(8) %0) #0 comdat align 2 {
  %2 = alloca ptr, align 8
  store ptr %0, ptr %2, align 8, !tbaa !149
  %3 = load ptr, ptr %2, align 8
  call void @_ZNK6duckdb12optional_ptrINS_18FunctionLocalStateELb1EE10CheckValidEv(ptr noundef nonnull align 8 dereferenceable(8) %3)
  %4 = getelementptr inbounds nuw %"class.duckdb::optional_ptr", ptr %3, i32 0, i32 0
  %5 = load ptr, ptr %4, align 8, !tbaa !151
  ret ptr %5
}

; Function Attrs: mustprogress uwtable
define linkonce_odr ptr @_ZN6duckdb20ExecuteFunctionState16GetFunctionStateERNS_15ExpressionStateE(ptr noundef nonnull align 8 dereferenceable(176) %0) #0 comdat align 2 {
  %2 = alloca %"class.duckdb::optional_ptr", align 8
  %3 = alloca ptr, align 8
  store ptr %0, ptr %3, align 8, !tbaa !42
  %4 = load ptr, ptr %3, align 8, !tbaa !42
  %5 = call noundef nonnull align 8 dereferenceable(184) ptr @_ZN6duckdb15ExpressionState4CastINS_20ExecuteFunctionStateEEERT_v(ptr noundef nonnull align 8 dereferenceable(176) %4)
  %6 = getelementptr inbounds nuw %"struct.duckdb::ExecuteFunctionState", ptr %5, i32 0, i32 1
  %7 = call noundef ptr @_ZNKSt10unique_ptrIN6duckdb18FunctionLocalStateESt14default_deleteIS1_EE3getEv(ptr noundef nonnull align 8 dereferenceable(8) %6) #17
  call void @_ZN6duckdb12optional_ptrINS_18FunctionLocalStateELb1EEC2EPS1_(ptr noundef nonnull align 8 dereferenceable(8) %2, ptr noundef %7)
  %8 = getelementptr inbounds nuw %"class.duckdb::optional_ptr", ptr %2, i32 0, i32 0
  %9 = load ptr, ptr %8, align 8
  ret ptr %9
}

; Function Attrs: mustprogress uwtable
define internal void @_ZN6duckdbL20GenerateUUIDFunctionERNS_9DataChunkERNS_15ExpressionStateERNS_6VectorE(ptr noundef nonnull align 8 dereferenceable(64) %0, ptr noundef nonnull align 8 dereferenceable(176) %1, ptr noundef nonnull align 8 dereferenceable(104) %2) #0 {
  %4 = alloca ptr, align 8
  %5 = alloca ptr, align 8
  %6 = alloca ptr, align 8
  %7 = alloca ptr, align 8
  %8 = alloca %"class.duckdb::optional_ptr", align 8
  %9 = alloca ptr, align 8
  %10 = alloca i64, align 8
  %11 = alloca %"struct.duckdb::hugeint_t", align 8
  store ptr %0, ptr %4, align 8, !tbaa !40
  store ptr %1, ptr %5, align 8, !tbaa !42
  store ptr %2, ptr %6, align 8, !tbaa !44
  call void @llvm.lifetime.start.p0(i64 8, ptr %7) #17
  call void @llvm.lifetime.start.p0(i64 8, ptr %8) #17
  %12 = load ptr, ptr %5, align 8, !tbaa !42
  %13 = call ptr @_ZN6duckdb20ExecuteFunctionState16GetFunctionStateERNS_15ExpressionStateE(ptr noundef nonnull align 8 dereferenceable(176) %12)
  %14 = getelementptr inbounds nuw %"class.duckdb::optional_ptr", ptr %8, i32 0, i32 0
  store ptr %13, ptr %14, align 8
  %15 = call noundef ptr @_ZN6duckdb12optional_ptrINS_18FunctionLocalStateELb1EEptEv(ptr noundef nonnull align 8 dereferenceable(8) %8)
  %16 = call noundef nonnull align 8 dereferenceable(56) ptr @_ZN6duckdb18FunctionLocalState4CastINS_16RandomLocalStateEEERT_v(ptr noundef nonnull align 8 dereferenceable(8) %15)
  call void @llvm.lifetime.end.p0(i64 8, ptr %8) #17
  store ptr %16, ptr %7, align 8, !tbaa !46
  %17 = load ptr, ptr %6, align 8, !tbaa !44
  call void @_ZN6duckdb6Vector13SetVectorTypeENS_10VectorTypeE(ptr noundef nonnull align 8 dereferenceable(104) %17, i8 noundef zeroext 0)
  call void @llvm.lifetime.start.p0(i64 8, ptr %9) #17
  %18 = load ptr, ptr %6, align 8, !tbaa !44
  %19 = call noundef ptr @_ZN6duckdb10FlatVector7GetDataINS_9hugeint_tEEEPT_RNS_6VectorE(ptr noundef nonnull align 8 dereferenceable(104) %18)
  store ptr %19, ptr %9, align 8, !tbaa !80
  call void @llvm.lifetime.start.p0(i64 8, ptr %10) #17
  store i64 0, ptr %10, align 8, !tbaa !50
  br label %20

20:                                               ; preds = %37, %3
  %21 = load i64, ptr %10, align 8, !tbaa !50
  %22 = load ptr, ptr %4, align 8, !tbaa !40
  %23 = call noundef i64 @_ZNK6duckdb9DataChunk4sizeEv(ptr noundef nonnull align 8 dereferenceable(64) %22)
  %24 = icmp ult i64 %21, %23
  br i1 %24, label %26, label %25

25:                                               ; preds = %20
  call void @llvm.lifetime.end.p0(i64 8, ptr %10) #17
  br label %40

26:                                               ; preds = %20
  call void @llvm.lifetime.start.p0(i64 16, ptr %11) #17
  %27 = load ptr, ptr %7, align 8, !tbaa !46
  %28 = getelementptr inbounds nuw %"struct.duckdb::RandomLocalState", ptr %27, i32 0, i32 1
  %29 = call { i64, i64 } @_ZN6duckdb4UUID18GenerateRandomUUIDERNS_12RandomEngineE(ptr noundef nonnull align 8 dereferenceable(48) %28)
  %30 = getelementptr inbounds nuw { i64, i64 }, ptr %11, i32 0, i32 0
  %31 = extractvalue { i64, i64 } %29, 0
  store i64 %31, ptr %30, align 8
  %32 = getelementptr inbounds nuw { i64, i64 }, ptr %11, i32 0, i32 1
  %33 = extractvalue { i64, i64 } %29, 1
  store i64 %33, ptr %32, align 8
  %34 = load ptr, ptr %9, align 8, !tbaa !80
  %35 = load i64, ptr %10, align 8, !tbaa !50
  %36 = getelementptr inbounds nuw %"struct.duckdb::hugeint_t", ptr %34, i64 %35
  call void @llvm.memcpy.p0.p0.i64(ptr align 8 %36, ptr align 8 %11, i64 16, i1 false), !tbaa.struct !82
  call void @llvm.lifetime.end.p0(i64 16, ptr %11) #17
  br label %37

37:                                               ; preds = %26
  %38 = load i64, ptr %10, align 8, !tbaa !50
  %39 = add i64 %38, 1
  store i64 %39, ptr %10, align 8, !tbaa !50
  br label %20, !llvm.loop !83

40:                                               ; preds = %25
  call void @llvm.lifetime.end.p0(i64 8, ptr %9) #17
  call void @llvm.lifetime.end.p0(i64 8, ptr %7) #17
  ret void
}