; Function Attrs: mustprogress uwtable
define internal void @_ZN6duckdbL20GenerateUUIDFunctionERNS_9DataChunkERNS_15ExpressionStateERNS_6VectorE(ptr noundef nonnull readonly align 8 captures(none) dereferenceable(64) %0, ptr noundef nonnull readonly align 8 captures(none) dereferenceable(176) %1, ptr noundef nonnull align 8 dereferenceable(104) %2) #0 {
  %4 = alloca %"class.duckdb::optional_ptr", align 8
  call void @llvm.lifetime.start.p0(i64 8, ptr nonnull %4) #19
  %5 = getelementptr inbounds nuw i8, ptr %1, i64 176
  %6 = load ptr, ptr %5, align 8, !tbaa !46
  store ptr %6, ptr %4, align 8
  call void @_ZNK6duckdb12optional_ptrINS_18FunctionLocalStateELb1EE10CheckValidEv(ptr noundef nonnull align 8 dereferenceable(8) %4)
  %7 = load ptr, ptr %4, align 8, !tbaa !48
  call void @llvm.lifetime.end.p0(i64 8, ptr nonnull %4) #19
  call void @_ZN6duckdb6Vector13SetVectorTypeENS_10VectorTypeE(ptr noundef nonnull align 8 dereferenceable(104) %2, i8 noundef zeroext 0)
  %8 = getelementptr inbounds nuw i8, ptr %2, i64 32
  %9 = load ptr, ptr %8, align 8, !tbaa !50
  %10 = getelementptr inbounds nuw i8, ptr %0, i64 24
  %11 = load i64, ptr %10, align 8, !tbaa !64
  %.not = icmp eq i64 %11, 0
  br i1 %.not, label %._crit_edge, label %.lr.ph

.lr.ph:                                           ; preds = %3
  %12 = getelementptr inbounds nuw i8, ptr %7, i64 8
  br label %13

._crit_edge:                                      ; preds = %13, %3
  ret void

13:                                               ; preds = %.lr.ph, %13
  %.08 = phi i64 [ 0, %.lr.ph ], [ %18, %13 ]
  %14 = call { i64, i64 } @_ZN6duckdb4UUID18GenerateRandomUUIDERNS_12RandomEngineE(ptr noundef nonnull align 8 dereferenceable(48) %12)
  %15 = extractvalue { i64, i64 } %14, 0
  %16 = extractvalue { i64, i64 } %14, 1
  %17 = getelementptr inbounds nuw %"struct.duckdb::hugeint_t", ptr %9, i64 %.08
  store i64 %15, ptr %17, align 8, !tbaa !95
  %.sroa.4.0..sroa_idx = getelementptr inbounds nuw i8, ptr %17, i64 8
  store i64 %16, ptr %.sroa.4.0..sroa_idx, align 8, !tbaa !95
  %18 = add nuw i64 %.08, 1
  %19 = load i64, ptr %10, align 8, !tbaa !64
  %20 = icmp ult i64 %18, %19
  br i1 %20, label %13, label %._crit_edge, !llvm.loop !96
}